---
triple:          'arm64-apple-darwin'
binary-path:     '/Users/maverick/Documents/Kalvium/Stack-3/OOP/Milestone/S48_Sajit_OOP_VirtualVendingMachine/output/Main'
relocations:
  - { offsetInCU: 0x4B02, offset: 0x4B02, size: 0x8, addend: 0x0, symName: __ZNSt3__124__put_character_sequenceB8ue170006IcNS_11char_traitsIcEEEERNS_13basic_ostreamIT_T0_EES7_PKS4_m, symObjAddr: 0x2704, symBinAddr: 0x100006428, symSize: 0x1F4 }
  - { offsetInCU: 0x6684, offset: 0x6684, size: 0x8, addend: 0x0, symName: __ZNSt3__1lsB8ue170006IcNS_11char_traitsIcEENS_9allocatorIcEEEERNS_13basic_ostreamIT_T0_EES9_RKNS_12basic_stringIS6_S7_T1_EE, symObjAddr: 0xAF0, symBinAddr: 0x100004814, symSize: 0x4C }
  - { offsetInCU: 0x66DC, offset: 0x66DC, size: 0x8, addend: 0x0, symName: __ZNSt3__1lsB8ue170006INS_11char_traitsIcEEEERNS_13basic_ostreamIcT_EES6_PKc, symObjAddr: 0xB3C, symBinAddr: 0x100004860, symSize: 0x48 }
  - { offsetInCU: 0x6722, offset: 0x6722, size: 0x8, addend: 0x0, symName: __ZNSt3__14endlB8ue170006IcNS_11char_traitsIcEEEERNS_13basic_ostreamIT_T0_EES7_, symObjAddr: 0xBE8, symBinAddr: 0x10000490C, symSize: 0x58 }
  - { offsetInCU: 0x6762, offset: 0x6762, size: 0x8, addend: 0x0, symName: __ZNSt3__112__to_addressB8ue170006I7ProductEEPT_S3_, symObjAddr: 0xEB0, symBinAddr: 0x100004BD4, symSize: 0x14 }
  - { offsetInCU: 0x6797, offset: 0x6797, size: 0x8, addend: 0x0, symName: __ZNSt3__13maxB8ue170006ImEERKT_S3_S3_, symObjAddr: 0x135C, symBinAddr: 0x100005080, symSize: 0x2C }
  - { offsetInCU: 0x67DA, offset: 0x67DA, size: 0x8, addend: 0x0, symName: __ZNSt3__13minB8ue170006ImEERKT_S3_S3_, symObjAddr: 0x1388, symBinAddr: 0x1000050AC, symSize: 0x2C }
  - { offsetInCU: 0x6A1E, offset: 0x6A1E, size: 0x8, addend: 0x0, symName: __ZNSt3__13minB8ue170006ImNS_6__lessIvvEEEERKT_S5_S5_T0_, symObjAddr: 0x1414, symBinAddr: 0x100005138, symSize: 0x54 }
  - { offsetInCU: 0x6ABD, offset: 0x6ABD, size: 0x8, addend: 0x0, symName: __ZNSt3__120__throw_length_errorB8ue170006EPKc, symObjAddr: 0x14F0, symBinAddr: 0x100005214, symSize: 0x64 }
  - { offsetInCU: 0x6AE7, offset: 0x6AE7, size: 0x8, addend: 0x0, symName: __ZNSt3__13maxB8ue170006ImNS_6__lessIvvEEEERKT_S5_S5_T0_, symObjAddr: 0x1634, symBinAddr: 0x100005358, symSize: 0x54 }
  - { offsetInCU: 0x6B41, offset: 0x6B41, size: 0x8, addend: 0x0, symName: __ZNSt3__119__allocate_at_leastB8ue170006INS_9allocatorI7ProductEEEENS_19__allocation_resultINS_16allocator_traitsIT_E7pointerEEERS6_m, symObjAddr: 0x1798, symBinAddr: 0x1000054BC, symSize: 0x40 }
  - { offsetInCU: 0x6B84, offset: 0x6B84, size: 0x8, addend: 0x0, symName: __ZNSt3__130__libcpp_is_constant_evaluatedB8ue170006Ev, symObjAddr: 0x1948, symBinAddr: 0x10000566C, symSize: 0xC }
  - { offsetInCU: 0x6BA1, offset: 0x6BA1, size: 0x8, addend: 0x0, symName: __ZNSt3__117__libcpp_allocateB8ue170006Emm, symObjAddr: 0x1954, symBinAddr: 0x100005678, symSize: 0x28 }
  - { offsetInCU: 0x6BDE, offset: 0x6BDE, size: 0x8, addend: 0x0, symName: __ZNSt3__121__libcpp_operator_newB8ue170006IJmEEEPvDpT_, symObjAddr: 0x197C, symBinAddr: 0x1000056A0, symSize: 0x24 }
  - { offsetInCU: 0x6C17, offset: 0x6C17, size: 0x8, addend: 0x0, symName: __ZNSt3__142__uninitialized_allocator_move_if_noexceptB8ue170006INS_9allocatorI7ProductEENS_16reverse_iteratorIPS2_EES6_S6_EET2_RT_T0_T1_S7_, symObjAddr: 0x1ABC, symBinAddr: 0x1000057E0, symSize: 0x134 }
  - { offsetInCU: 0x6CB7, offset: 0x6CB7, size: 0x8, addend: 0x0, symName: __ZNSt3__14swapB8ue170006IP7ProductEEvRT_S4_, symObjAddr: 0x1C3C, symBinAddr: 0x100005960, symSize: 0x3C }
  - { offsetInCU: 0x6D08, offset: 0x6D08, size: 0x8, addend: 0x0, symName: __ZNSt3__122__make_exception_guardB8ue170006INS_29_AllocatorDestroyRangeReverseINS_9allocatorI7ProductEENS_16reverse_iteratorIPS3_EEEEEENS_28__exception_guard_exceptionsIT_EESA_, symObjAddr: 0x1D6C, symBinAddr: 0x100005A90, symSize: 0x4C }
  - { offsetInCU: 0x6D3E, offset: 0x6D3E, size: 0x8, addend: 0x0, symName: __ZNSt3__1neB8ue170006IP7ProductS2_EEbRKNS_16reverse_iteratorIT_EERKNS3_IT0_EE, symObjAddr: 0x1DFC, symBinAddr: 0x100005B20, symSize: 0x48 }
  - { offsetInCU: 0x6D8A, offset: 0x6D8A, size: 0x8, addend: 0x0, symName: __ZNSt3__112__to_addressB8ue170006INS_16reverse_iteratorIP7ProductEEvEEu7__decayIDTclsr19__to_address_helperIT_EE6__callclsr3stdE7declvalIRKS5_EEEEES7_, symObjAddr: 0x1E44, symBinAddr: 0x100005B68, symSize: 0x24 }
  - { offsetInCU: 0x6DE9, offset: 0x6DE9, size: 0x8, addend: 0x0, symName: __ZNSt3__119__allocator_destroyB8ue170006INS_9allocatorI7ProductEENS_16reverse_iteratorINS4_IPS2_EEEES7_EEvRT_T0_T1_, symObjAddr: 0x2100, symBinAddr: 0x100005E24, symSize: 0x70 }
  - { offsetInCU: 0x6E4E, offset: 0x6E4E, size: 0x8, addend: 0x0, symName: __ZNSt3__1neB8ue170006INS_16reverse_iteratorIP7ProductEES4_EEbRKNS1_IT_EERKNS1_IT0_EE, symObjAddr: 0x21AC, symBinAddr: 0x100005ED0, symSize: 0x60 }
  - { offsetInCU: 0x6E9A, offset: 0x6E9A, size: 0x8, addend: 0x0, symName: __ZNSt3__112__to_addressB8ue170006INS_16reverse_iteratorINS1_IP7ProductEEEEvEEu7__decayIDTclsr19__to_address_helperIT_EE6__callclsr3stdE7declvalIRKS6_EEEEES8_, symObjAddr: 0x2238, symBinAddr: 0x100005F5C, symSize: 0x24 }
  - { offsetInCU: 0x6EF9, offset: 0x6EF9, size: 0x8, addend: 0x0, symName: __ZNSt3__119__libcpp_deallocateB8ue170006EPvmm, symObjAddr: 0x263C, symBinAddr: 0x100006360, symSize: 0x30 }
  - { offsetInCU: 0x6F41, offset: 0x6F41, size: 0x8, addend: 0x0, symName: __ZNSt3__127__do_deallocate_handle_sizeB8ue170006IJEEEvPvmDpT_, symObjAddr: 0x266C, symBinAddr: 0x100006390, symSize: 0x28 }
  - { offsetInCU: 0x6F7F, offset: 0x6F7F, size: 0x8, addend: 0x0, symName: __ZNSt3__124__libcpp_operator_deleteB8ue170006IJPvEEEvDpT_, symObjAddr: 0x2694, symBinAddr: 0x1000063B8, symSize: 0x24 }
  - { offsetInCU: 0x6FB4, offset: 0x6FB4, size: 0x8, addend: 0x0, symName: __ZNSt3__116__pad_and_outputB8ue170006IcNS_11char_traitsIcEEEENS_19ostreambuf_iteratorIT_T0_EES6_PKS4_S8_S8_RNS_8ios_baseES4_, symObjAddr: 0x2990, symBinAddr: 0x1000066B4, symSize: 0x248 }
  - { offsetInCU: 0x7083, offset: 0x7083, size: 0x8, addend: 0x0, symName: __ZNSt3__19use_facetB8ue170006INS_5ctypeIcEEEERKT_RKNS_6localeE, symObjAddr: 0x3038, symBinAddr: 0x100006D5C, symSize: 0x2C }
  - { offsetInCU: 0x7550, offset: 0x7550, size: 0x8, addend: 0x0, symName: __ZNSt3__112__to_addressB8ue170006IKcEEPT_S3_, symObjAddr: 0x30D0, symBinAddr: 0x100006DF4, symSize: 0x14 }
  - { offsetInCU: 0x75B8, offset: 0x75B8, size: 0x8, addend: 0x0, symName: __ZNSt3__118__constexpr_strlenB8ue170006EPKc, symObjAddr: 0x32EC, symBinAddr: 0x100007010, symSize: 0x24 }
  - { offsetInCU: 0x75E4, offset: 0x75E4, size: 0x8, addend: 0x0, symName: __ZNSt3__1neB8ue170006IP7ProductEEbRKNS_11__wrap_iterIT_EES7_, symObjAddr: 0x3370, symBinAddr: 0x100007094, symSize: 0x34 }
  - { offsetInCU: 0x7627, offset: 0x7627, size: 0x8, addend: 0x0, symName: __ZNSt3__1eqB8ue170006IP7ProductEEbRKNS_11__wrap_iterIT_EES7_, symObjAddr: 0x34F0, symBinAddr: 0x100007214, symSize: 0x48 }
  - { offsetInCU: 0x766A, offset: 0x766A, size: 0x8, addend: 0x0, symName: __ZNSt3__1lsB8ue170006IcNS_11char_traitsIcEEEERNS_13basic_ostreamIT_T0_EES7_RKNS_8__iom_t5E, symObjAddr: 0x3550, symBinAddr: 0x100007274, symSize: 0x40 }
  - { offsetInCU: 0x76B6, offset: 0x76B6, size: 0x8, addend: 0x0, symName: __ZNSt3__15fixedB8ue170006ERNS_8ios_baseE, symObjAddr: 0x35D0, symBinAddr: 0x1000072F4, symSize: 0x30 }
  - { offsetInCU: 0x76E4, offset: 0x76E4, size: 0x8, addend: 0x0, symName: __ZNSt3__112setprecisionB8ue170006Ei, symObjAddr: 0x3600, symBinAddr: 0x100007324, symSize: 0x2C }
  - { offsetInCU: 0x78BD, offset: 0x78BD, size: 0x8, addend: 0x0, symName: __ZSt28__throw_bad_array_new_lengthB8ue170006v, symObjAddr: 0x1914, symBinAddr: 0x100005638, symSize: 0x34 }
  - { offsetInCU: 0x7E1F, offset: 0x7E1F, size: 0x8, addend: 0x0, symName: __ZNSt3__16vectorI7ProductNS_9allocatorIS1_EEE26__swap_out_circular_bufferERNS_14__split_bufferIS1_RS3_EE, symObjAddr: 0x1150, symBinAddr: 0x100004E74, symSize: 0x110 }
  - { offsetInCU: 0xA248, offset: 0xA248, size: 0x8, addend: 0x0, symName: _main, symObjAddr: 0x0, symBinAddr: 0x100003D24, symSize: 0x510 }
  - { offsetInCU: 0xA2AA, offset: 0xA2AA, size: 0x8, addend: 0x0, symName: __ZNSt3__112basic_stringIcNS_11char_traitsIcEENS_9allocatorIcEEEC1B8ue170006ILi0EEEPKc, symObjAddr: 0x510, symBinAddr: 0x100004234, symSize: 0x34 }
  - { offsetInCU: 0xA2E8, offset: 0xA2E8, size: 0x8, addend: 0x0, symName: __ZN7ProductC1ENSt3__112basic_stringIcNS0_11char_traitsIcEENS0_9allocatorIcEEEEd, symObjAddr: 0x544, symBinAddr: 0x100004268, symSize: 0x3C }
  - { offsetInCU: 0xA32E, offset: 0xA32E, size: 0x8, addend: 0x0, symName: __ZN7ProductD1Ev, symObjAddr: 0x58C, symBinAddr: 0x1000042B0, symSize: 0x2C }
  - { offsetInCU: 0xA3DF, offset: 0xA3DF, size: 0x8, addend: 0x0, symName: __ZN14VendingMachineC1ENSt3__112basic_stringIcNS0_11char_traitsIcEENS0_9allocatorIcEEEE, symObjAddr: 0x5B8, symBinAddr: 0x1000042DC, symSize: 0x34 }
  - { offsetInCU: 0xA417, offset: 0xA417, size: 0x8, addend: 0x0, symName: __ZN14VendingMachine10addProductERK7Product, symObjAddr: 0x5EC, symBinAddr: 0x100004310, symSize: 0xE0 }
  - { offsetInCU: 0xA44A, offset: 0xA44A, size: 0x8, addend: 0x0, symName: __ZN14VendingMachine15displayProductsEv, symObjAddr: 0x6CC, symBinAddr: 0x1000043F0, symSize: 0xB8 }
  - { offsetInCU: 0xA4C2, offset: 0xA4C2, size: 0x8, addend: 0x0, symName: __ZN14VendingMachine18applyDiscountToAllEd, symObjAddr: 0x784, symBinAddr: 0x1000044A8, symSize: 0x84 }
  - { offsetInCU: 0xA548, offset: 0xA548, size: 0x8, addend: 0x0, symName: __ZN14VendingMachineD1Ev, symObjAddr: 0x808, symBinAddr: 0x10000452C, symSize: 0x2C }
  - { offsetInCU: 0xA573, offset: 0xA573, size: 0x8, addend: 0x0, symName: __ZN7ProductC2ENSt3__112basic_stringIcNS0_11char_traitsIcEENS0_9allocatorIcEEEEd, symObjAddr: 0x834, symBinAddr: 0x100004558, symSize: 0x40 }
  - { offsetInCU: 0xA5B9, offset: 0xA5B9, size: 0x8, addend: 0x0, symName: __ZN7ProductD2Ev, symObjAddr: 0x874, symBinAddr: 0x100004598, symSize: 0x2C }
  - { offsetInCU: 0xA5E4, offset: 0xA5E4, size: 0x8, addend: 0x0, symName: __ZN14VendingMachineC2ENSt3__112basic_stringIcNS0_11char_traitsIcEENS0_9allocatorIcEEEE, symObjAddr: 0x8A0, symBinAddr: 0x1000045C4, symSize: 0x70 }
  - { offsetInCU: 0xA61C, offset: 0xA61C, size: 0x8, addend: 0x0, symName: __ZNSt3__16vectorI7ProductNS_9allocatorIS1_EEEC1B8ue170006Ev, symObjAddr: 0x910, symBinAddr: 0x100004634, symSize: 0x2C }
  - { offsetInCU: 0xA645, offset: 0xA645, size: 0x8, addend: 0x0, symName: __ZNSt3__16vectorI7ProductNS_9allocatorIS1_EEEC2B8ue170006Ev, symObjAddr: 0x93C, symBinAddr: 0x100004660, symSize: 0x44 }
  - { offsetInCU: 0xA678, offset: 0xA678, size: 0x8, addend: 0x0, symName: __ZNSt3__117__compressed_pairIP7ProductNS_9allocatorIS1_EEEC1B8ue170006IDnNS_18__default_init_tagEEEOT_OT0_, symObjAddr: 0x980, symBinAddr: 0x1000046A4, symSize: 0x3C }
  - { offsetInCU: 0xA6CF, offset: 0xA6CF, size: 0x8, addend: 0x0, symName: __ZNSt3__117__compressed_pairIP7ProductNS_9allocatorIS1_EEEC2B8ue170006IDnNS_18__default_init_tagEEEOT_OT0_, symObjAddr: 0x9BC, symBinAddr: 0x1000046E0, symSize: 0x40 }
  - { offsetInCU: 0xA726, offset: 0xA726, size: 0x8, addend: 0x0, symName: __ZNSt3__122__compressed_pair_elemIP7ProductLi0ELb0EEC2B8ue170006IDnvEEOT_, symObjAddr: 0x9FC, symBinAddr: 0x100004720, symSize: 0x1C }
  - { offsetInCU: 0xA767, offset: 0xA767, size: 0x8, addend: 0x0, symName: __ZNSt3__122__compressed_pair_elemINS_9allocatorI7ProductEELi1ELb1EEC2B8ue170006ENS_18__default_init_tagE, symObjAddr: 0xA18, symBinAddr: 0x10000473C, symSize: 0x2C }
  - { offsetInCU: 0xA79B, offset: 0xA79B, size: 0x8, addend: 0x0, symName: __ZNSt3__19allocatorI7ProductEC2B8ue170006Ev, symObjAddr: 0xA44, symBinAddr: 0x100004768, symSize: 0x2C }
  - { offsetInCU: 0xA7C4, offset: 0xA7C4, size: 0x8, addend: 0x0, symName: __ZNSt3__116__non_trivial_ifILb1ENS_9allocatorI7ProductEEEC2B8ue170006Ev, symObjAddr: 0xA70, symBinAddr: 0x100004794, symSize: 0x14 }
  - { offsetInCU: 0xA7EC, offset: 0xA7EC, size: 0x8, addend: 0x0, symName: __ZNSt3__16vectorI7ProductNS_9allocatorIS1_EEE9push_backB8ue170006ERKS1_, symObjAddr: 0xA84, symBinAddr: 0x1000047A8, symSize: 0x6C }
  - { offsetInCU: 0xA822, offset: 0xA822, size: 0x8, addend: 0x0, symName: __ZNK7Product7getNameEv, symObjAddr: 0xB84, symBinAddr: 0x1000048A8, symSize: 0x38 }
  - { offsetInCU: 0xA847, offset: 0xA847, size: 0x8, addend: 0x0, symName: __ZNSt3__113basic_ostreamIcNS_11char_traitsIcEEElsB8ue170006EPFRS3_S4_E, symObjAddr: 0xBBC, symBinAddr: 0x1000048E0, symSize: 0x2C }
  - { offsetInCU: 0xA87A, offset: 0xA87A, size: 0x8, addend: 0x0, symName: __ZNSt3__16vectorI7ProductNS_9allocatorIS1_EEE9__end_capB8ue170006Ev, symObjAddr: 0xC40, symBinAddr: 0x100004964, symSize: 0x28 }
  - { offsetInCU: 0xA89F, offset: 0xA89F, size: 0x8, addend: 0x0, symName: __ZNSt3__16vectorI7ProductNS_9allocatorIS1_EEE22__construct_one_at_endB8ue170006IJRKS1_EEEvDpOT_, symObjAddr: 0xC68, symBinAddr: 0x10000498C, symSize: 0x98 }
  - { offsetInCU: 0xA8EC, offset: 0xA8EC, size: 0x8, addend: 0x0, symName: __ZNSt3__16vectorI7ProductNS_9allocatorIS1_EEE21__push_back_slow_pathIRKS1_EEvOT_, symObjAddr: 0xD00, symBinAddr: 0x100004A24, symSize: 0xE0 }
  - { offsetInCU: 0xA949, offset: 0xA949, size: 0x8, addend: 0x0, symName: __ZNSt3__117__compressed_pairIP7ProductNS_9allocatorIS1_EEE5firstB8ue170006Ev, symObjAddr: 0xDE0, symBinAddr: 0x100004B04, symSize: 0x24 }
  - { offsetInCU: 0xA96E, offset: 0xA96E, size: 0x8, addend: 0x0, symName: __ZNSt3__122__compressed_pair_elemIP7ProductLi0ELb0EE5__getB8ue170006Ev, symObjAddr: 0xE04, symBinAddr: 0x100004B28, symSize: 0x14 }
  - { offsetInCU: 0xA9AC, offset: 0xA9AC, size: 0x8, addend: 0x0, symName: __ZNSt3__16vectorI7ProductNS_9allocatorIS1_EEE21_ConstructTransactionC1B8ue170006ERS4_m, symObjAddr: 0xE18, symBinAddr: 0x100004B3C, symSize: 0x3C }
  - { offsetInCU: 0xA9F3, offset: 0xA9F3, size: 0x8, addend: 0x0, symName: __ZNSt3__116allocator_traitsINS_9allocatorI7ProductEEE9constructB8ue170006IS2_JRKS2_EvEEvRS3_PT_DpOT0_, symObjAddr: 0xE54, symBinAddr: 0x100004B78, symSize: 0x34 }
  - { offsetInCU: 0xAA4A, offset: 0xAA4A, size: 0x8, addend: 0x0, symName: __ZNSt3__16vectorI7ProductNS_9allocatorIS1_EEE7__allocB8ue170006Ev, symObjAddr: 0xE88, symBinAddr: 0x100004BAC, symSize: 0x28 }
  - { offsetInCU: 0xAA6F, offset: 0xAA6F, size: 0x8, addend: 0x0, symName: __ZNSt3__16vectorI7ProductNS_9allocatorIS1_EEE21_ConstructTransactionD1B8ue170006Ev, symObjAddr: 0xEC4, symBinAddr: 0x100004BE8, symSize: 0x2C }
  - { offsetInCU: 0xAA98, offset: 0xAA98, size: 0x8, addend: 0x0, symName: __ZNSt3__16vectorI7ProductNS_9allocatorIS1_EEE21_ConstructTransactionC2B8ue170006ERS4_m, symObjAddr: 0xEF0, symBinAddr: 0x100004C14, symSize: 0x44 }
  - { offsetInCU: 0xAADF, offset: 0xAADF, size: 0x8, addend: 0x0, symName: __ZNSt3__19allocatorI7ProductE9constructB8ue170006IS1_JRKS1_EEEvPT_DpOT0_, symObjAddr: 0xF34, symBinAddr: 0x100004C58, symSize: 0x30 }
  - { offsetInCU: 0xAB34, offset: 0xAB34, size: 0x8, addend: 0x0, symName: __ZN7ProductC1ERKS_, symObjAddr: 0xF64, symBinAddr: 0x100004C88, symSize: 0x34 }
  - { offsetInCU: 0xAB68, offset: 0xAB68, size: 0x8, addend: 0x0, symName: __ZN7ProductC2ERKS_, symObjAddr: 0xF98, symBinAddr: 0x100004CBC, symSize: 0x40 }
  - { offsetInCU: 0xAB9C, offset: 0xAB9C, size: 0x8, addend: 0x0, symName: __ZNSt3__117__compressed_pairIP7ProductNS_9allocatorIS1_EEE6secondB8ue170006Ev, symObjAddr: 0xFD8, symBinAddr: 0x100004CFC, symSize: 0x24 }
  - { offsetInCU: 0xABC1, offset: 0xABC1, size: 0x8, addend: 0x0, symName: __ZNSt3__122__compressed_pair_elemINS_9allocatorI7ProductEELi1ELb1EE5__getB8ue170006Ev, symObjAddr: 0xFFC, symBinAddr: 0x100004D20, symSize: 0x14 }
  - { offsetInCU: 0xABE6, offset: 0xABE6, size: 0x8, addend: 0x0, symName: __ZNSt3__16vectorI7ProductNS_9allocatorIS1_EEE21_ConstructTransactionD2B8ue170006Ev, symObjAddr: 0x1010, symBinAddr: 0x100004D34, symSize: 0x20 }
  - { offsetInCU: 0xAC0E, offset: 0xAC0E, size: 0x8, addend: 0x0, symName: __ZNKSt3__16vectorI7ProductNS_9allocatorIS1_EEE11__recommendB8ue170006Em, symObjAddr: 0x1030, symBinAddr: 0x100004D54, symSize: 0xB4 }
  - { offsetInCU: 0xAC62, offset: 0xAC62, size: 0x8, addend: 0x0, symName: __ZNKSt3__16vectorI7ProductNS_9allocatorIS1_EEE4sizeB8ue170006Ev, symObjAddr: 0x10E4, symBinAddr: 0x100004E08, symSize: 0x28 }
  - { offsetInCU: 0xAC87, offset: 0xAC87, size: 0x8, addend: 0x0, symName: __ZNSt3__114__split_bufferI7ProductRNS_9allocatorIS1_EEEC1EmmS4_, symObjAddr: 0x110C, symBinAddr: 0x100004E30, symSize: 0x44 }
  - { offsetInCU: 0xACDC, offset: 0xACDC, size: 0x8, addend: 0x0, symName: __ZNSt3__114__split_bufferI7ProductRNS_9allocatorIS1_EEED1Ev, symObjAddr: 0x1260, symBinAddr: 0x100004F84, symSize: 0x2C }
  - { offsetInCU: 0xAD06, offset: 0xAD06, size: 0x8, addend: 0x0, symName: __ZNKSt3__16vectorI7ProductNS_9allocatorIS1_EEE8max_sizeEv, symObjAddr: 0x128C, symBinAddr: 0x100004FB0, symSize: 0x74 }
  - { offsetInCU: 0xAD2D, offset: 0xAD2D, size: 0x8, addend: 0x0, symName: __ZNKSt3__16vectorI7ProductNS_9allocatorIS1_EEE20__throw_length_errorB8ue170006Ev, symObjAddr: 0x1300, symBinAddr: 0x100005024, symSize: 0x1C }
  - { offsetInCU: 0xAD52, offset: 0xAD52, size: 0x8, addend: 0x0, symName: __ZNKSt3__16vectorI7ProductNS_9allocatorIS1_EEE8capacityB8ue170006Ev, symObjAddr: 0x131C, symBinAddr: 0x100005040, symSize: 0x40 }
  - { offsetInCU: 0xAD81, offset: 0xAD81, size: 0x8, addend: 0x0, symName: __ZNSt3__116allocator_traitsINS_9allocatorI7ProductEEE8max_sizeB8ue170006IS3_vEEmRKS3_, symObjAddr: 0x13B4, symBinAddr: 0x1000050D8, symSize: 0x24 }
  - { offsetInCU: 0xADAF, offset: 0xADAF, size: 0x8, addend: 0x0, symName: __ZNKSt3__16vectorI7ProductNS_9allocatorIS1_EEE7__allocB8ue170006Ev, symObjAddr: 0x13D8, symBinAddr: 0x1000050FC, symSize: 0x28 }
  - { offsetInCU: 0xADD4, offset: 0xADD4, size: 0x8, addend: 0x0, symName: __ZNSt3__114numeric_limitsIlE3maxB8ue170006Ev, symObjAddr: 0x1400, symBinAddr: 0x100005124, symSize: 0x14 }
  - { offsetInCU: 0xADFC, offset: 0xADFC, size: 0x8, addend: 0x0, symName: __ZNKSt3__16__lessIvvEclB8ue170006ImmEEbRKT_RKT0_, symObjAddr: 0x1468, symBinAddr: 0x10000518C, symSize: 0x34 }
  - { offsetInCU: 0xAE4F, offset: 0xAE4F, size: 0x8, addend: 0x0, symName: __ZNKSt3__19allocatorI7ProductE8max_sizeB8ue170006Ev, symObjAddr: 0x149C, symBinAddr: 0x1000051C0, symSize: 0x14 }
  - { offsetInCU: 0xAE74, offset: 0xAE74, size: 0x8, addend: 0x0, symName: __ZNKSt3__117__compressed_pairIP7ProductNS_9allocatorIS1_EEE6secondB8ue170006Ev, symObjAddr: 0x14B0, symBinAddr: 0x1000051D4, symSize: 0x24 }
  - { offsetInCU: 0xAE99, offset: 0xAE99, size: 0x8, addend: 0x0, symName: __ZNKSt3__122__compressed_pair_elemINS_9allocatorI7ProductEELi1ELb1EE5__getB8ue170006Ev, symObjAddr: 0x14D4, symBinAddr: 0x1000051F8, symSize: 0x14 }
  - { offsetInCU: 0xAEBE, offset: 0xAEBE, size: 0x8, addend: 0x0, symName: __ZNSt3__123__libcpp_numeric_limitsIlLb1EE3maxB8ue170006Ev, symObjAddr: 0x14E8, symBinAddr: 0x10000520C, symSize: 0x8 }
  - { offsetInCU: 0xAED2, offset: 0xAED2, size: 0x8, addend: 0x0, symName: __ZNSt12length_errorC1B8ue170006EPKc, symObjAddr: 0x1554, symBinAddr: 0x100005278, symSize: 0x34 }
  - { offsetInCU: 0xAF09, offset: 0xAF09, size: 0x8, addend: 0x0, symName: __ZNSt12length_errorC2B8ue170006EPKc, symObjAddr: 0x1588, symBinAddr: 0x1000052AC, symSize: 0x4C }
  - { offsetInCU: 0xAF40, offset: 0xAF40, size: 0x8, addend: 0x0, symName: __ZNKSt3__16vectorI7ProductNS_9allocatorIS1_EEE9__end_capB8ue170006Ev, symObjAddr: 0x15D4, symBinAddr: 0x1000052F8, symSize: 0x28 }
  - { offsetInCU: 0xAF65, offset: 0xAF65, size: 0x8, addend: 0x0, symName: __ZNKSt3__117__compressed_pairIP7ProductNS_9allocatorIS1_EEE5firstB8ue170006Ev, symObjAddr: 0x15FC, symBinAddr: 0x100005320, symSize: 0x24 }
  - { offsetInCU: 0xAF8A, offset: 0xAF8A, size: 0x8, addend: 0x0, symName: __ZNKSt3__122__compressed_pair_elemIP7ProductLi0ELb0EE5__getB8ue170006Ev, symObjAddr: 0x1620, symBinAddr: 0x100005344, symSize: 0x14 }
  - { offsetInCU: 0xAFAF, offset: 0xAFAF, size: 0x8, addend: 0x0, symName: __ZNSt3__114__split_bufferI7ProductRNS_9allocatorIS1_EEEC2EmmS4_, symObjAddr: 0x1688, symBinAddr: 0x1000053AC, symSize: 0xD4 }
  - { offsetInCU: 0xB022, offset: 0xB022, size: 0x8, addend: 0x0, symName: __ZNSt3__117__compressed_pairIP7ProductRNS_9allocatorIS1_EEEC1B8ue170006IDnS5_EEOT_OT0_, symObjAddr: 0x175C, symBinAddr: 0x100005480, symSize: 0x3C }
  - { offsetInCU: 0xB079, offset: 0xB079, size: 0x8, addend: 0x0, symName: __ZNSt3__114__split_bufferI7ProductRNS_9allocatorIS1_EEE7__allocB8ue170006Ev, symObjAddr: 0x17D8, symBinAddr: 0x1000054FC, symSize: 0x28 }
  - { offsetInCU: 0xB09E, offset: 0xB09E, size: 0x8, addend: 0x0, symName: __ZNSt3__114__split_bufferI7ProductRNS_9allocatorIS1_EEE9__end_capB8ue170006Ev, symObjAddr: 0x1800, symBinAddr: 0x100005524, symSize: 0x28 }
  - { offsetInCU: 0xB0C3, offset: 0xB0C3, size: 0x8, addend: 0x0, symName: __ZNSt3__117__compressed_pairIP7ProductRNS_9allocatorIS1_EEEC2B8ue170006IDnS5_EEOT_OT0_, symObjAddr: 0x1828, symBinAddr: 0x10000554C, symSize: 0x48 }
  - { offsetInCU: 0xB11A, offset: 0xB11A, size: 0x8, addend: 0x0, symName: __ZNSt3__122__compressed_pair_elemIRNS_9allocatorI7ProductEELi1ELb0EEC2B8ue170006IS4_vEEOT_, symObjAddr: 0x1870, symBinAddr: 0x100005594, symSize: 0x20 }
  - { offsetInCU: 0xB15B, offset: 0xB15B, size: 0x8, addend: 0x0, symName: __ZNSt3__19allocatorI7ProductE8allocateB8ue170006Em, symObjAddr: 0x1890, symBinAddr: 0x1000055B4, symSize: 0x84 }
  - { offsetInCU: 0xB18E, offset: 0xB18E, size: 0x8, addend: 0x0, symName: __ZNSt3__117__compressed_pairIP7ProductRNS_9allocatorIS1_EEE6secondB8ue170006Ev, symObjAddr: 0x19A0, symBinAddr: 0x1000056C4, symSize: 0x28 }
  - { offsetInCU: 0xB1B3, offset: 0xB1B3, size: 0x8, addend: 0x0, symName: __ZNSt3__122__compressed_pair_elemIRNS_9allocatorI7ProductEELi1ELb0EE5__getB8ue170006Ev, symObjAddr: 0x19C8, symBinAddr: 0x1000056EC, symSize: 0x18 }
  - { offsetInCU: 0xB1D8, offset: 0xB1D8, size: 0x8, addend: 0x0, symName: __ZNSt3__117__compressed_pairIP7ProductRNS_9allocatorIS1_EEE5firstB8ue170006Ev, symObjAddr: 0x19E0, symBinAddr: 0x100005704, symSize: 0x24 }
  - { offsetInCU: 0xB1FD, offset: 0xB1FD, size: 0x8, addend: 0x0, symName: __ZNKSt3__16vectorI7ProductNS_9allocatorIS1_EEE17__annotate_deleteB8ue170006Ev, symObjAddr: 0x1A04, symBinAddr: 0x100005728, symSize: 0xB8 }
  - { offsetInCU: 0xB222, offset: 0xB222, size: 0x8, addend: 0x0, symName: __ZNSt3__116reverse_iteratorIP7ProductEC1B8ue170006ES2_, symObjAddr: 0x1BF0, symBinAddr: 0x100005914, symSize: 0x34 }
  - { offsetInCU: 0xB259, offset: 0xB259, size: 0x8, addend: 0x0, symName: __ZNKSt3__116reverse_iteratorIP7ProductE4baseB8ue170006Ev, symObjAddr: 0x1C24, symBinAddr: 0x100005948, symSize: 0x18 }
  - { offsetInCU: 0xB27E, offset: 0xB27E, size: 0x8, addend: 0x0, symName: __ZNKSt3__16vectorI7ProductNS_9allocatorIS1_EEE14__annotate_newB8ue170006Em, symObjAddr: 0x1C78, symBinAddr: 0x10000599C, symSize: 0xAC }
  - { offsetInCU: 0xB2B2, offset: 0xB2B2, size: 0x8, addend: 0x0, symName: __ZNKSt3__16vectorI7ProductNS_9allocatorIS1_EEE31__annotate_contiguous_containerB8ue170006EPKvS6_S6_S6_, symObjAddr: 0x1D24, symBinAddr: 0x100005A48, symSize: 0x20 }
  - { offsetInCU: 0xB307, offset: 0xB307, size: 0x8, addend: 0x0, symName: __ZNKSt3__16vectorI7ProductNS_9allocatorIS1_EEE4dataB8ue170006Ev, symObjAddr: 0x1D44, symBinAddr: 0x100005A68, symSize: 0x28 }
  - { offsetInCU: 0xB32C, offset: 0xB32C, size: 0x8, addend: 0x0, symName: __ZNSt3__129_AllocatorDestroyRangeReverseINS_9allocatorI7ProductEENS_16reverse_iteratorIPS2_EEEC1B8ue170006ERS3_RS6_S9_, symObjAddr: 0x1DB8, symBinAddr: 0x100005ADC, symSize: 0x44 }
  - { offsetInCU: 0xB382, offset: 0xB382, size: 0x8, addend: 0x0, symName: __ZNKSt3__116reverse_iteratorIP7ProductEdeB8ue170006Ev, symObjAddr: 0x1E68, symBinAddr: 0x100005B8C, symSize: 0x28 }
  - { offsetInCU: 0xB3B5, offset: 0xB3B5, size: 0x8, addend: 0x0, symName: __ZNSt3__116reverse_iteratorIP7ProductEppB8ue170006Ev, symObjAddr: 0x1E90, symBinAddr: 0x100005BB4, symSize: 0x20 }
  - { offsetInCU: 0xB3DA, offset: 0xB3DA, size: 0x8, addend: 0x0, symName: __ZNSt3__128__exception_guard_exceptionsINS_29_AllocatorDestroyRangeReverseINS_9allocatorI7ProductEENS_16reverse_iteratorIPS3_EEEEE10__completeB8ue170006Ev, symObjAddr: 0x1EB0, symBinAddr: 0x100005BD4, symSize: 0x1C }
  - { offsetInCU: 0xB3FF, offset: 0xB3FF, size: 0x8, addend: 0x0, symName: __ZNSt3__128__exception_guard_exceptionsINS_29_AllocatorDestroyRangeReverseINS_9allocatorI7ProductEENS_16reverse_iteratorIPS3_EEEEED1B8ue170006Ev, symObjAddr: 0x1ECC, symBinAddr: 0x100005BF0, symSize: 0x2C }
  - { offsetInCU: 0xB428, offset: 0xB428, size: 0x8, addend: 0x0, symName: __ZNSt3__128__exception_guard_exceptionsINS_29_AllocatorDestroyRangeReverseINS_9allocatorI7ProductEENS_16reverse_iteratorIPS3_EEEEEC1B8ue170006ES8_, symObjAddr: 0x1EF8, symBinAddr: 0x100005C1C, symSize: 0x34 }
  - { offsetInCU: 0xB460, offset: 0xB460, size: 0x8, addend: 0x0, symName: __ZNSt3__128__exception_guard_exceptionsINS_29_AllocatorDestroyRangeReverseINS_9allocatorI7ProductEENS_16reverse_iteratorIPS3_EEEEEC2B8ue170006ES8_, symObjAddr: 0x1F2C, symBinAddr: 0x100005C50, symSize: 0x30 }
  - { offsetInCU: 0xB498, offset: 0xB498, size: 0x8, addend: 0x0, symName: __ZNSt3__129_AllocatorDestroyRangeReverseINS_9allocatorI7ProductEENS_16reverse_iteratorIPS2_EEEC2B8ue170006ERS3_RS6_S9_, symObjAddr: 0x1F5C, symBinAddr: 0x100005C80, symSize: 0x38 }
  - { offsetInCU: 0xB4F3, offset: 0xB4F3, size: 0x8, addend: 0x0, symName: __ZNSt3__119__to_address_helperINS_16reverse_iteratorIP7ProductEEvE6__callB8ue170006ERKS4_, symObjAddr: 0x1F94, symBinAddr: 0x100005CB8, symSize: 0x4C }
  - { offsetInCU: 0xB516, offset: 0xB516, size: 0x8, addend: 0x0, symName: __ZNKSt3__116reverse_iteratorIP7ProductEptB8ue170006Ev, symObjAddr: 0x1FE0, symBinAddr: 0x100005D04, symSize: 0x24 }
  - { offsetInCU: 0xB53B, offset: 0xB53B, size: 0x8, addend: 0x0, symName: __ZNSt3__128__exception_guard_exceptionsINS_29_AllocatorDestroyRangeReverseINS_9allocatorI7ProductEENS_16reverse_iteratorIPS3_EEEEED2B8ue170006Ev, symObjAddr: 0x2004, symBinAddr: 0x100005D28, symSize: 0x48 }
  - { offsetInCU: 0xB564, offset: 0xB564, size: 0x8, addend: 0x0, symName: __ZNKSt3__129_AllocatorDestroyRangeReverseINS_9allocatorI7ProductEENS_16reverse_iteratorIPS2_EEEclB8ue170006Ev, symObjAddr: 0x204C, symBinAddr: 0x100005D70, symSize: 0xB4 }
  - { offsetInCU: 0xB58A, offset: 0xB58A, size: 0x8, addend: 0x0, symName: __ZNSt3__116reverse_iteratorINS0_IP7ProductEEEC1B8ue170006ES3_, symObjAddr: 0x2170, symBinAddr: 0x100005E94, symSize: 0x3C }
  - { offsetInCU: 0xB5C1, offset: 0xB5C1, size: 0x8, addend: 0x0, symName: __ZNSt3__116allocator_traitsINS_9allocatorI7ProductEEE7destroyB8ue170006IS2_vEEvRS3_PT_, symObjAddr: 0x220C, symBinAddr: 0x100005F30, symSize: 0x2C }
  - { offsetInCU: 0xB5FE, offset: 0xB5FE, size: 0x8, addend: 0x0, symName: __ZNSt3__116reverse_iteratorINS0_IP7ProductEEEppB8ue170006Ev, symObjAddr: 0x225C, symBinAddr: 0x100005F80, symSize: 0x30 }
  - { offsetInCU: 0xB623, offset: 0xB623, size: 0x8, addend: 0x0, symName: __ZNKSt3__116reverse_iteratorINS0_IP7ProductEEE4baseB8ue170006Ev, symObjAddr: 0x228C, symBinAddr: 0x100005FB0, symSize: 0x24 }
  - { offsetInCU: 0xB648, offset: 0xB648, size: 0x8, addend: 0x0, symName: __ZNSt3__19allocatorI7ProductE7destroyB8ue170006EPS1_, symObjAddr: 0x22B0, symBinAddr: 0x100005FD4, symSize: 0x28 }
  - { offsetInCU: 0xB680, offset: 0xB680, size: 0x8, addend: 0x0, symName: __ZNSt3__119__to_address_helperINS_16reverse_iteratorINS1_IP7ProductEEEEvE6__callB8ue170006ERKS5_, symObjAddr: 0x22D8, symBinAddr: 0x100005FFC, symSize: 0x4C }
  - { offsetInCU: 0xB6A3, offset: 0xB6A3, size: 0x8, addend: 0x0, symName: __ZNKSt3__116reverse_iteratorINS0_IP7ProductEEEptB8ue170006Ev, symObjAddr: 0x2324, symBinAddr: 0x100006048, symSize: 0x24 }
  - { offsetInCU: 0xB6C8, offset: 0xB6C8, size: 0x8, addend: 0x0, symName: __ZNKSt3__116reverse_iteratorINS0_IP7ProductEEEdeB8ue170006Ev, symObjAddr: 0x2348, symBinAddr: 0x10000606C, symSize: 0x34 }
  - { offsetInCU: 0xB6FB, offset: 0xB6FB, size: 0x8, addend: 0x0, symName: __ZNSt3__116reverse_iteratorIP7ProductEmmB8ue170006Ev, symObjAddr: 0x237C, symBinAddr: 0x1000060A0, symSize: 0x20 }
  - { offsetInCU: 0xB720, offset: 0xB720, size: 0x8, addend: 0x0, symName: __ZNSt3__116reverse_iteratorINS0_IP7ProductEEEC2B8ue170006ES3_, symObjAddr: 0x239C, symBinAddr: 0x1000060C0, symSize: 0x2C }
  - { offsetInCU: 0xB757, offset: 0xB757, size: 0x8, addend: 0x0, symName: __ZNSt3__116reverse_iteratorIP7ProductEC2B8ue170006ES2_, symObjAddr: 0x23C8, symBinAddr: 0x1000060EC, symSize: 0x28 }
  - { offsetInCU: 0xB78E, offset: 0xB78E, size: 0x8, addend: 0x0, symName: __ZNSt3__114__split_bufferI7ProductRNS_9allocatorIS1_EEED2Ev, symObjAddr: 0x23F0, symBinAddr: 0x100006114, symSize: 0x80 }
  - { offsetInCU: 0xB7B9, offset: 0xB7B9, size: 0x8, addend: 0x0, symName: __ZNSt3__114__split_bufferI7ProductRNS_9allocatorIS1_EEE5clearB8ue170006Ev, symObjAddr: 0x2470, symBinAddr: 0x100006194, symSize: 0x28 }
  - { offsetInCU: 0xB7DE, offset: 0xB7DE, size: 0x8, addend: 0x0, symName: __ZNSt3__116allocator_traitsINS_9allocatorI7ProductEEE10deallocateB8ue170006ERS3_PS2_m, symObjAddr: 0x2498, symBinAddr: 0x1000061BC, symSize: 0x34 }
  - { offsetInCU: 0xB820, offset: 0xB820, size: 0x8, addend: 0x0, symName: __ZNKSt3__114__split_bufferI7ProductRNS_9allocatorIS1_EEE8capacityB8ue170006Ev, symObjAddr: 0x24CC, symBinAddr: 0x1000061F0, symSize: 0x40 }
  - { offsetInCU: 0xB845, offset: 0xB845, size: 0x8, addend: 0x0, symName: __ZNSt3__114__split_bufferI7ProductRNS_9allocatorIS1_EEE17__destruct_at_endB8ue170006EPS1_, symObjAddr: 0x250C, symBinAddr: 0x100006230, symSize: 0x2C }
  - { offsetInCU: 0xB877, offset: 0xB877, size: 0x8, addend: 0x0, symName: __ZNSt3__114__split_bufferI7ProductRNS_9allocatorIS1_EEE17__destruct_at_endB8ue170006EPS1_NS_17integral_constantIbLb0EEE, symObjAddr: 0x2538, symBinAddr: 0x10000625C, symSize: 0x94 }
  - { offsetInCU: 0xB8B7, offset: 0xB8B7, size: 0x8, addend: 0x0, symName: __ZNSt3__19allocatorI7ProductE10deallocateB8ue170006EPS1_m, symObjAddr: 0x25CC, symBinAddr: 0x1000062F0, symSize: 0x70 }
  - { offsetInCU: 0xB8F8, offset: 0xB8F8, size: 0x8, addend: 0x0, symName: __ZNKSt3__114__split_bufferI7ProductRNS_9allocatorIS1_EEE9__end_capB8ue170006Ev, symObjAddr: 0x26B8, symBinAddr: 0x1000063DC, symSize: 0x28 }
  - { offsetInCU: 0xB91D, offset: 0xB91D, size: 0x8, addend: 0x0, symName: __ZNKSt3__117__compressed_pairIP7ProductRNS_9allocatorIS1_EEE5firstB8ue170006Ev, symObjAddr: 0x26E0, symBinAddr: 0x100006404, symSize: 0x24 }
  - { offsetInCU: 0xB942, offset: 0xB942, size: 0x8, addend: 0x0, symName: __ZNKSt3__112basic_stringIcNS_11char_traitsIcEENS_9allocatorIcEEE4dataB8ue170006Ev, symObjAddr: 0x28F8, symBinAddr: 0x10000661C, symSize: 0x28 }
  - { offsetInCU: 0xB967, offset: 0xB967, size: 0x8, addend: 0x0, symName: __ZNKSt3__112basic_stringIcNS_11char_traitsIcEENS_9allocatorIcEEE4sizeB8ue170006Ev, symObjAddr: 0x2920, symBinAddr: 0x100006644, symSize: 0x54 }
  - { offsetInCU: 0xB9AA, offset: 0xB9AA, size: 0x8, addend: 0x0, symName: __ZNKSt3__113basic_ostreamIcNS_11char_traitsIcEEE6sentrycvbB8ue170006Ev, symObjAddr: 0x2974, symBinAddr: 0x100006698, symSize: 0x1C }
  - { offsetInCU: 0xB9CF, offset: 0xB9CF, size: 0x8, addend: 0x0, symName: __ZNSt3__119ostreambuf_iteratorIcNS_11char_traitsIcEEEC1B8ue170006ERNS_13basic_ostreamIcS2_EE, symObjAddr: 0x2BD8, symBinAddr: 0x1000068FC, symSize: 0x34 }
  - { offsetInCU: 0xBA06, offset: 0xBA06, size: 0x8, addend: 0x0, symName: __ZNKSt3__18ios_base5flagsB8ue170006Ev, symObjAddr: 0x2C0C, symBinAddr: 0x100006930, symSize: 0x18 }
  - { offsetInCU: 0xBA2C, offset: 0xBA2C, size: 0x8, addend: 0x0, symName: __ZNKSt3__19basic_iosIcNS_11char_traitsIcEEE4fillB8ue170006Ev, symObjAddr: 0x2C24, symBinAddr: 0x100006948, symSize: 0x64 }
  - { offsetInCU: 0xBA53, offset: 0xBA53, size: 0x8, addend: 0x0, symName: __ZNKSt3__119ostreambuf_iteratorIcNS_11char_traitsIcEEE6failedB8ue170006Ev, symObjAddr: 0x2C88, symBinAddr: 0x1000069AC, symSize: 0x24 }
  - { offsetInCU: 0xBA78, offset: 0xBA78, size: 0x8, addend: 0x0, symName: __ZNSt3__19basic_iosIcNS_11char_traitsIcEEE8setstateB8ue170006Ej, symObjAddr: 0x2CAC, symBinAddr: 0x1000069D0, symSize: 0x2C }
  - { offsetInCU: 0xBAAC, offset: 0xBAAC, size: 0x8, addend: 0x0, symName: __ZNKSt3__18ios_base5widthB8ue170006Ev, symObjAddr: 0x2CD8, symBinAddr: 0x1000069FC, symSize: 0x18 }
  - { offsetInCU: 0xBAD3, offset: 0xBAD3, size: 0x8, addend: 0x0, symName: __ZNSt3__115basic_streambufIcNS_11char_traitsIcEEE5sputnB8ue170006EPKcl, symObjAddr: 0x2CF0, symBinAddr: 0x100006A14, symSize: 0x3C }
  - { offsetInCU: 0xBB14, offset: 0xBB14, size: 0x8, addend: 0x0, symName: __ZNSt3__112basic_stringIcNS_11char_traitsIcEENS_9allocatorIcEEEC1B8ue170006Emc, symObjAddr: 0x2D2C, symBinAddr: 0x100006A50, symSize: 0x3C }
  - { offsetInCU: 0xBB5B, offset: 0xBB5B, size: 0x8, addend: 0x0, symName: __ZNSt3__18ios_base5widthB8ue170006El, symObjAddr: 0x2D68, symBinAddr: 0x100006A8C, symSize: 0x2C }
  - { offsetInCU: 0xBBA0, offset: 0xBBA0, size: 0x8, addend: 0x0, symName: __ZNSt3__112basic_stringIcNS_11char_traitsIcEENS_9allocatorIcEEEC2B8ue170006Emc, symObjAddr: 0x2D94, symBinAddr: 0x100006AB8, symSize: 0x4C }
  - { offsetInCU: 0xBBE7, offset: 0xBBE7, size: 0x8, addend: 0x0, symName: __ZNSt3__117__compressed_pairINS_12basic_stringIcNS_11char_traitsIcEENS_9allocatorIcEEE5__repES5_EC1B8ue170006INS_18__default_init_tagESA_EEOT_OT0_, symObjAddr: 0x2DE0, symBinAddr: 0x100006B04, symSize: 0x3C }
  - { offsetInCU: 0xBC3E, offset: 0xBC3E, size: 0x8, addend: 0x0, symName: __ZNSt3__117__compressed_pairINS_12basic_stringIcNS_11char_traitsIcEENS_9allocatorIcEEE5__repES5_EC2B8ue170006INS_18__default_init_tagESA_EEOT_OT0_, symObjAddr: 0x2E1C, symBinAddr: 0x100006B40, symSize: 0x3C }
  - { offsetInCU: 0xBC95, offset: 0xBC95, size: 0x8, addend: 0x0, symName: __ZNSt3__122__compressed_pair_elemINS_12basic_stringIcNS_11char_traitsIcEENS_9allocatorIcEEE5__repELi0ELb0EEC2B8ue170006ENS_18__default_init_tagE, symObjAddr: 0x2E58, symBinAddr: 0x100006B7C, symSize: 0x14 }
  - { offsetInCU: 0xBCC9, offset: 0xBCC9, size: 0x8, addend: 0x0, symName: __ZNSt3__122__compressed_pair_elemINS_9allocatorIcEELi1ELb1EEC2B8ue170006ENS_18__default_init_tagE, symObjAddr: 0x2E6C, symBinAddr: 0x100006B90, symSize: 0x2C }
  - { offsetInCU: 0xBCFD, offset: 0xBCFD, size: 0x8, addend: 0x0, symName: __ZNSt3__19allocatorIcEC2B8ue170006Ev, symObjAddr: 0x2E98, symBinAddr: 0x100006BBC, symSize: 0x2C }
  - { offsetInCU: 0xBD26, offset: 0xBD26, size: 0x8, addend: 0x0, symName: __ZNSt3__116__non_trivial_ifILb1ENS_9allocatorIcEEEC2B8ue170006Ev, symObjAddr: 0x2EC4, symBinAddr: 0x100006BE8, symSize: 0x14 }
  - { offsetInCU: 0xBD4F, offset: 0xBD4F, size: 0x8, addend: 0x0, symName: __ZNSt3__119ostreambuf_iteratorIcNS_11char_traitsIcEEEC2B8ue170006ERNS_13basic_ostreamIcS2_EE, symObjAddr: 0x2ED8, symBinAddr: 0x100006BFC, symSize: 0x68 }
  - { offsetInCU: 0xBD85, offset: 0xBD85, size: 0x8, addend: 0x0, symName: __ZNKSt3__19basic_iosIcNS_11char_traitsIcEEE5rdbufB8ue170006Ev, symObjAddr: 0x2F40, symBinAddr: 0x100006C64, symSize: 0x24 }
  - { offsetInCU: 0xBDAC, offset: 0xBDAC, size: 0x8, addend: 0x0, symName: __ZNKSt3__18ios_base5rdbufB8ue170006Ev, symObjAddr: 0x2F64, symBinAddr: 0x100006C88, symSize: 0x18 }
  - { offsetInCU: 0xBDD1, offset: 0xBDD1, size: 0x8, addend: 0x0, symName: __ZNSt3__111char_traitsIcE11eq_int_typeB8ue170006Eii, symObjAddr: 0x2F7C, symBinAddr: 0x100006CA0, symSize: 0x28 }
  - { offsetInCU: 0xBE04, offset: 0xBE04, size: 0x8, addend: 0x0, symName: __ZNSt3__111char_traitsIcE3eofB8ue170006Ev, symObjAddr: 0x2FA4, symBinAddr: 0x100006CC8, symSize: 0x8 }
  - { offsetInCU: 0xBE17, offset: 0xBE17, size: 0x8, addend: 0x0, symName: __ZNKSt3__19basic_iosIcNS_11char_traitsIcEEE5widenB8ue170006Ec, symObjAddr: 0x2FAC, symBinAddr: 0x100006CD0, symSize: 0x8C }
  - { offsetInCU: 0xBE84, offset: 0xBE84, size: 0x8, addend: 0x0, symName: __ZNKSt3__15ctypeIcE5widenB8ue170006Ec, symObjAddr: 0x3064, symBinAddr: 0x100006D88, symSize: 0x38 }
  - { offsetInCU: 0xBEB7, offset: 0xBEB7, size: 0x8, addend: 0x0, symName: __ZNSt3__18ios_base8setstateB8ue170006Ej, symObjAddr: 0x309C, symBinAddr: 0x100006DC0, symSize: 0x34 }
  - { offsetInCU: 0xBEED, offset: 0xBEED, size: 0x8, addend: 0x0, symName: __ZNKSt3__112basic_stringIcNS_11char_traitsIcEENS_9allocatorIcEEE13__get_pointerB8ue170006Ev, symObjAddr: 0x30E4, symBinAddr: 0x100006E08, symSize: 0x54 }
  - { offsetInCU: 0xBF12, offset: 0xBF12, size: 0x8, addend: 0x0, symName: __ZNKSt3__112basic_stringIcNS_11char_traitsIcEENS_9allocatorIcEEE9__is_longB8ue170006Ev, symObjAddr: 0x3138, symBinAddr: 0x100006E5C, symSize: 0x74 }
  - { offsetInCU: 0xBF37, offset: 0xBF37, size: 0x8, addend: 0x0, symName: __ZNKSt3__112basic_stringIcNS_11char_traitsIcEENS_9allocatorIcEEE18__get_long_pointerB8ue170006Ev, symObjAddr: 0x31AC, symBinAddr: 0x100006ED0, symSize: 0x28 }
  - { offsetInCU: 0xBF5C, offset: 0xBF5C, size: 0x8, addend: 0x0, symName: __ZNKSt3__112basic_stringIcNS_11char_traitsIcEENS_9allocatorIcEEE19__get_short_pointerB8ue170006Ev, symObjAddr: 0x31D4, symBinAddr: 0x100006EF8, symSize: 0x28 }
  - { offsetInCU: 0xBF81, offset: 0xBF81, size: 0x8, addend: 0x0, symName: __ZNKSt3__117__compressed_pairINS_12basic_stringIcNS_11char_traitsIcEENS_9allocatorIcEEE5__repES5_E5firstB8ue170006Ev, symObjAddr: 0x31FC, symBinAddr: 0x100006F20, symSize: 0x24 }
  - { offsetInCU: 0xBFA6, offset: 0xBFA6, size: 0x8, addend: 0x0, symName: __ZNKSt3__122__compressed_pair_elemINS_12basic_stringIcNS_11char_traitsIcEENS_9allocatorIcEEE5__repELi0ELb0EE5__getB8ue170006Ev, symObjAddr: 0x3220, symBinAddr: 0x100006F44, symSize: 0x14 }
  - { offsetInCU: 0xBFCB, offset: 0xBFCB, size: 0x8, addend: 0x0, symName: __ZNSt3__114pointer_traitsIPKcE10pointer_toB8ue170006ERS1_, symObjAddr: 0x3234, symBinAddr: 0x100006F58, symSize: 0x14 }
  - { offsetInCU: 0xBFEE, offset: 0xBFEE, size: 0x8, addend: 0x0, symName: __ZNKSt3__112basic_stringIcNS_11char_traitsIcEENS_9allocatorIcEEE15__get_long_sizeB8ue170006Ev, symObjAddr: 0x3248, symBinAddr: 0x100006F6C, symSize: 0x28 }
  - { offsetInCU: 0xC013, offset: 0xC013, size: 0x8, addend: 0x0, symName: __ZNKSt3__112basic_stringIcNS_11char_traitsIcEENS_9allocatorIcEEE16__get_short_sizeB8ue170006Ev, symObjAddr: 0x3270, symBinAddr: 0x100006F94, symSize: 0x34 }
  - { offsetInCU: 0xC038, offset: 0xC038, size: 0x8, addend: 0x0, symName: __ZNSt3__111char_traitsIcE6lengthB8ue170006EPKc, symObjAddr: 0x32A4, symBinAddr: 0x100006FC8, symSize: 0x48 }
  - { offsetInCU: 0xC05A, offset: 0xC05A, size: 0x8, addend: 0x0, symName: __ZNSt3__16vectorI7ProductNS_9allocatorIS1_EEE5beginB8ue170006Ev, symObjAddr: 0x3310, symBinAddr: 0x100007034, symSize: 0x30 }
  - { offsetInCU: 0xC080, offset: 0xC080, size: 0x8, addend: 0x0, symName: __ZNSt3__16vectorI7ProductNS_9allocatorIS1_EEE3endB8ue170006Ev, symObjAddr: 0x3340, symBinAddr: 0x100007064, symSize: 0x30 }
  - { offsetInCU: 0xC0A7, offset: 0xC0A7, size: 0x8, addend: 0x0, symName: __ZNKSt3__111__wrap_iterIP7ProductEdeB8ue170006Ev, symObjAddr: 0x33A4, symBinAddr: 0x1000070C8, symSize: 0x18 }
  - { offsetInCU: 0xC0CC, offset: 0xC0CC, size: 0x8, addend: 0x0, symName: __ZN7Product11displayInfoEv, symObjAddr: 0x33BC, symBinAddr: 0x1000070E0, symSize: 0x90 }
  - { offsetInCU: 0xC0F1, offset: 0xC0F1, size: 0x8, addend: 0x0, symName: __ZNSt3__111__wrap_iterIP7ProductEppB8ue170006Ev, symObjAddr: 0x344C, symBinAddr: 0x100007170, symSize: 0x20 }
  - { offsetInCU: 0xC116, offset: 0xC116, size: 0x8, addend: 0x0, symName: __ZNSt3__16vectorI7ProductNS_9allocatorIS1_EEE11__make_iterB8ue170006EPS1_, symObjAddr: 0x346C, symBinAddr: 0x100007190, symSize: 0x30 }
  - { offsetInCU: 0xC14A, offset: 0xC14A, size: 0x8, addend: 0x0, symName: __ZNSt3__111__wrap_iterIP7ProductEC1B8ue170006ES2_, symObjAddr: 0x349C, symBinAddr: 0x1000071C0, symSize: 0x34 }
  - { offsetInCU: 0xC181, offset: 0xC181, size: 0x8, addend: 0x0, symName: __ZNSt3__111__wrap_iterIP7ProductEC2B8ue170006ES2_, symObjAddr: 0x34D0, symBinAddr: 0x1000071F4, symSize: 0x20 }
  - { offsetInCU: 0xC1B8, offset: 0xC1B8, size: 0x8, addend: 0x0, symName: __ZNKSt3__111__wrap_iterIP7ProductE4baseB8ue170006Ev, symObjAddr: 0x3538, symBinAddr: 0x10000725C, symSize: 0x18 }
  - { offsetInCU: 0xC1DD, offset: 0xC1DD, size: 0x8, addend: 0x0, symName: __ZNSt3__113basic_ostreamIcNS_11char_traitsIcEEElsB8ue170006EPFRNS_8ios_baseES5_E, symObjAddr: 0x3590, symBinAddr: 0x1000072B4, symSize: 0x40 }
  - { offsetInCU: 0xC210, offset: 0xC210, size: 0x8, addend: 0x0, symName: __ZNSt3__18ios_base9precisionB8ue170006El, symObjAddr: 0x362C, symBinAddr: 0x100007350, symSize: 0x2C }
  - { offsetInCU: 0xC254, offset: 0xC254, size: 0x8, addend: 0x0, symName: __ZNSt3__18ios_base4setfB8ue170006Ejj, symObjAddr: 0x3658, symBinAddr: 0x10000737C, symSize: 0x5C }
  - { offsetInCU: 0xC2A8, offset: 0xC2A8, size: 0x8, addend: 0x0, symName: __ZNSt3__18ios_base6unsetfB8ue170006Ej, symObjAddr: 0x36B4, symBinAddr: 0x1000073D8, symSize: 0x28 }
  - { offsetInCU: 0xC2DE, offset: 0xC2DE, size: 0x8, addend: 0x0, symName: __ZNSt3__18__iom_t5C1B8ue170006Ei, symObjAddr: 0x36DC, symBinAddr: 0x100007400, symSize: 0x34 }
  - { offsetInCU: 0xC315, offset: 0xC315, size: 0x8, addend: 0x0, symName: __ZNSt3__18__iom_t5C2B8ue170006Ei, symObjAddr: 0x3710, symBinAddr: 0x100007434, symSize: 0x20 }
  - { offsetInCU: 0xC34C, offset: 0xC34C, size: 0x8, addend: 0x0, symName: __ZN7Product13applyDiscountEd, symObjAddr: 0x3730, symBinAddr: 0x100007454, symSize: 0xCC }
  - { offsetInCU: 0xC37F, offset: 0xC37F, size: 0x8, addend: 0x0, symName: __ZN14VendingMachineD2Ev, symObjAddr: 0x37FC, symBinAddr: 0x100007520, symSize: 0x68 }
  - { offsetInCU: 0xC3AA, offset: 0xC3AA, size: 0x8, addend: 0x0, symName: __ZNSt3__16vectorI7ProductNS_9allocatorIS1_EEED1B8ue170006Ev, symObjAddr: 0x3864, symBinAddr: 0x100007588, symSize: 0x2C }
  - { offsetInCU: 0xC3D3, offset: 0xC3D3, size: 0x8, addend: 0x0, symName: __ZNSt3__16vectorI7ProductNS_9allocatorIS1_EEED2B8ue170006Ev, symObjAddr: 0x3890, symBinAddr: 0x1000075B4, symSize: 0x3C }
  - { offsetInCU: 0xC3FC, offset: 0xC3FC, size: 0x8, addend: 0x0, symName: __ZNSt3__16vectorI7ProductNS_9allocatorIS1_EEE16__destroy_vectorC1B8ue170006ERS4_, symObjAddr: 0x38CC, symBinAddr: 0x1000075F0, symSize: 0x34 }
  - { offsetInCU: 0xC434, offset: 0xC434, size: 0x8, addend: 0x0, symName: __ZNSt3__16vectorI7ProductNS_9allocatorIS1_EEE16__destroy_vectorclB8ue170006Ev, symObjAddr: 0x3900, symBinAddr: 0x100007624, symSize: 0x90 }
  - { offsetInCU: 0xC459, offset: 0xC459, size: 0x8, addend: 0x0, symName: __ZNSt3__16vectorI7ProductNS_9allocatorIS1_EEE16__destroy_vectorC2B8ue170006ERS4_, symObjAddr: 0x3990, symBinAddr: 0x1000076B4, symSize: 0x20 }
  - { offsetInCU: 0xC491, offset: 0xC491, size: 0x8, addend: 0x0, symName: __ZNSt3__16vectorI7ProductNS_9allocatorIS1_EEE7__clearB8ue170006Ev, symObjAddr: 0x39B0, symBinAddr: 0x1000076D4, symSize: 0x28 }
  - { offsetInCU: 0xC4B6, offset: 0xC4B6, size: 0x8, addend: 0x0, symName: __ZNSt3__16vectorI7ProductNS_9allocatorIS1_EEE22__base_destruct_at_endB8ue170006EPS1_, symObjAddr: 0x39D8, symBinAddr: 0x1000076FC, symSize: 0xA0 }
  - { offsetInCU: 0xC4F9, offset: 0xC4F9, size: 0x8, addend: 0x0, symName: __ZNSt3__112basic_stringIcNS_11char_traitsIcEENS_9allocatorIcEEEC2B8ue170006ILi0EEEPKc, symObjAddr: 0x3A78, symBinAddr: 0x10000779C, symSize: 0x58 }
...
